Certificate:
    Data:
        Version: 3 (0x2)
        Serial Number: 2 (0x2)
    Signature Algorithm: sha256WithRSAEncryption
        Issuer: C=FR, ST=Radius, L=Somewhere, O=Example Inc./emailAddress=admin@example.org, CN=Example Certificate Authority
        Validity
            Not Before: Apr 29 10:01:39 2017 GMT
            Not After : Jun 28 10:01:39 2017 GMT
        Subject: C=FR, ST=Radius, O=Example Inc., CN=user@example.org/emailAddress=user@example.org
        Subject Public Key Info:
            Public Key Algorithm: rsaEncryption
                Public-Key: (2048 bit)
                Modulus:
                    00:aa:1b:0b:9f:fe:6b:62:1b:d9:d4:47:42:ae:45:
                    38:de:a5:aa:72:9d:af:3e:c4:14:d3:ee:27:21:b1:
                    24:db:48:71:8a:b2:d9:fa:2d:1f:7c:71:6c:9c:ca:
                    1a:5c:91:5f:5f:7d:7c:9f:34:15:b1:23:ba:b4:88:
                    84:21:2d:ed:04:bf:40:56:ec:10:25:b4:6a:b3:ae:
                    39:8b:ca:f0:21:42:17:03:3a:af:78:66:62:80:89:
                    75:a5:f2:c8:f1:fb:d7:63:8f:36:36:b1:ad:6d:8e:
                    72:9f:1a:09:d1:67:52:21:39:d0:b7:44:61:21:66:
                    b2:78:e4:6d:66:f1:e8:47:1e:82:4c:5d:c8:8d:48:
                    d9:87:dc:5d:87:b7:1a:c6:a5:d7:e6:2b:70:fe:18:
                    9d:38:07:d2:bc:41:65:41:29:37:e2:91:2c:50:12:
                    b4:7e:fb:0c:a6:16:cf:24:f4:ee:51:49:16:fa:aa:
                    e8:25:17:76:4c:90:ee:a6:69:b0:89:10:e0:39:a0:
                    f0:3f:83:69:8d:6f:f5:2b:50:52:5a:2f:9a:e9:0d:
                    8e:41:9f:d1:b4:41:e1:69:b1:cf:46:40:bf:f2:49:
                    e3:b0:1a:d2:0c:d3:a0:cc:21:ca:f4:a9:68:8c:75:
                    9e:03:22:d9:ad:3f:8b:37:13:d8:89:07:62:dc:40:
                    ff:65
                Exponent: 65537 (0x10001)
        X509v3 extensions:
            X509v3 Extended Key Usage: 
                TLS Web Client Authentication
            X509v3 CRL Distribution Points: 

                Full Name:
                  URI:http://www.example.com/example_ca.crl

    Signature Algorithm: sha256WithRSAEncryption
         55:fc:08:76:de:9b:a6:9d:3e:c2:08:e9:5c:32:17:fe:84:ee:
         ae:aa:8e:11:89:22:c4:20:61:6c:1c:c5:2e:d2:0a:52:1a:9c:
         bd:a3:e0:4c:ed:02:42:56:95:ad:18:1e:45:3b:69:3b:4f:7d:
         7f:fe:82:c9:5d:ac:29:60:b8:d3:3d:73:9e:30:67:fa:f2:59:
         d3:8d:de:6b:56:1c:4d:77:e0:6d:28:31:bd:50:cf:62:66:b4:
         13:2d:0d:25:d3:29:36:e2:69:f0:3f:e7:96:36:34:48:c3:ae:
         9d:22:de:29:54:08:56:67:82:cc:e7:de:b6:d6:f6:39:62:3b:
         6e:2e:cb:30:b8:2d:e9:67:19:a3:ca:5d:85:4f:ac:76:a3:58:
         62:0d:6e:c5:53:6b:91:b3:be:4e:62:83:0b:5c:4f:e3:ca:df:
         8d:9e:32:8e:4d:ef:89:c0:10:ee:b8:81:45:b1:6a:b7:0c:d2:
         7c:81:07:7e:ea:07:12:52:b0:58:70:77:29:6a:d7:9d:3d:ca:
         a6:33:db:f2:ce:0c:38:3f:be:eb:70:8d:f8:6a:0f:cf:a0:d6:
         e0:d3:1a:cb:7d:7f:b3:97:b8:d8:0e:5e:58:08:9f:01:34:2b:
         08:67:1e:03:7b:b7:80:fa:65:7d:5d:c4:a4:f3:79:16:76:58:
         b9:03:02:6e
-----BEGIN CERTIFICATE-----
MIIDzzCCAregAwIBAgIBAjANBgkqhkiG9w0BAQsFADCBkzELMAkGA1UEBhMCRlIx
DzANBgNVBAgMBlJhZGl1czESMBAGA1UEBwwJU29tZXdoZXJlMRUwEwYDVQQKDAxF
eGFtcGxlIEluYy4xIDAeBgkqhkiG9w0BCQEWEWFkbWluQGV4YW1wbGUub3JnMSYw
JAYDVQQDDB1FeGFtcGxlIENlcnRpZmljYXRlIEF1dGhvcml0eTAeFw0xNzA0Mjkx
MDAxMzlaFw0xNzA2MjgxMDAxMzlaMHExCzAJBgNVBAYTAkZSMQ8wDQYDVQQIDAZS
YWRpdXMxFTATBgNVBAoMDEV4YW1wbGUgSW5jLjEZMBcGA1UEAwwQdXNlckBleGFt
cGxlLm9yZzEfMB0GCSqGSIb3DQEJARYQdXNlckBleGFtcGxlLm9yZzCCASIwDQYJ
KoZIhvcNAQEBBQADggEPADCCAQoCggEBAKobC5/+a2Ib2dRHQq5FON6lqnKdrz7E
FNPuJyGxJNtIcYqy2fotH3xxbJzKGlyRX199fJ80FbEjurSIhCEt7QS/QFbsECW0
arOuOYvK8CFCFwM6r3hmYoCJdaXyyPH712OPNjaxrW2Ocp8aCdFnUiE50LdEYSFm
snjkbWbx6EcegkxdyI1I2YfcXYe3Gsal1+YrcP4YnTgH0rxBZUEpN+KRLFAStH77
DKYWzyT07lFJFvqq6CUXdkyQ7qZpsIkQ4Dmg8D+DaY1v9StQUlovmukNjkGf0bRB
4Wmxz0ZAv/JJ47Aa0gzToMwhyvSpaIx1ngMi2a0/izcT2IkHYtxA/2UCAwEAAaNP
ME0wEwYDVR0lBAwwCgYIKwYBBQUHAwIwNgYDVR0fBC8wLTAroCmgJ4YlaHR0cDov
L3d3dy5leGFtcGxlLmNvbS9leGFtcGxlX2NhLmNybDANBgkqhkiG9w0BAQsFAAOC
AQEAVfwIdt6bpp0+wgjpXDIX/oTurqqOEYkixCBhbBzFLtIKUhqcvaPgTO0CQlaV
rRgeRTtpO099f/6CyV2sKWC40z1znjBn+vJZ043ea1YcTXfgbSgxvVDPYma0Ey0N
JdMpNuJp8D/nljY0SMOunSLeKVQIVmeCzOfettb2OWI7bi7LMLgt6WcZo8pdhU+s
dqNYYg1uxVNrkbO+TmKDC1xP48rfjZ4yjk3vicAQ7riBRbFqtwzSfIEHfuoHElKw
WHB3KWrXnT3KpjPb8s4MOD++63CN+GoPz6DW4NMay31/s5e42A5eWAifATQrCGce
A3u3gPplfV3EpPN5FnZYuQMCbg==
-----END CERTIFICATE-----
